; ModuleID = '56/2597.c'
source_filename = "56/2597.c"
target datalayout = "e-m:e-p270:32:32-p271:32:32-p272:64:64-i64:64-f80:128-n8:16:32:64-S128"
target triple = "x86_64-pc-linux-gnu"

@.str = private unnamed_addr constant [3 x i8] c"%s\00", align 1
@.str.1 = private unnamed_addr constant [3 x i8] c"%c\00", align 1

; Function Attrs: noinline nounwind uwtable
define dso_local i32 @main() #0 {
  %1 = alloca i32, align 4
  %2 = alloca i32, align 4
  %3 = alloca [6 x i8], align 1
  store i32 0, i32* %1, align 4
  %4 = bitcast [6 x i8]* %3 to i8*
  call void @llvm.memset.p0i8.i64(i8* align 1 %4, i8 0, i64 6, i1 false)
  %5 = getelementptr inbounds [6 x i8], [6 x i8]* %3, i64 0, i64 0
  %6 = call i32 (i8*, ...) @__isoc99_scanf(i8* getelementptr inbounds ([3 x i8], [3 x i8]* @.str, i64 0, i64 0), i8* %5)
  store i32 0, i32* %2, align 4
  br label %7

7:                                                ; preds = %26, %0
  %8 = load i32, i32* %2, align 4
  %9 = icmp slt i32 %8, 6
  br i1 %9, label %10, label %29

10:                                               ; preds = %7
  %11 = load i32, i32* %2, align 4
  %12 = sub nsw i32 5, %11
  %13 = sext i32 %12 to i64
  %14 = getelementptr inbounds [6 x i8], [6 x i8]* %3, i64 0, i64 %13
  %15 = load i8, i8* %14, align 1
  %16 = icmp ne i8 %15, 0
  br i1 %16, label %17, label %25

17:                                               ; preds = %10
  %18 = load i32, i32* %2, align 4
  %19 = sub nsw i32 5, %18
  %20 = sext i32 %19 to i64
  %21 = getelementptr inbounds [6 x i8], [6 x i8]* %3, i64 0, i64 %20
  %22 = load i8, i8* %21, align 1
  %23 = sext i8 %22 to i32
  %24 = call i32 (i8*, ...) @printf(i8* getelementptr inbounds ([3 x i8], [3 x i8]* @.str.1, i64 0, i64 0), i32 %23)
  br label %25

25:                                               ; preds = %17, %10
  br label %26

26:                                               ; preds = %25
  %27 = load i32, i32* %2, align 4
  %28 = add nsw i32 %27, 1
  store i32 %28, i32* %2, align 4
  br label %7

29:                                               ; preds = %7
  ret i32 0
}

; Function Attrs: argmemonly nounwind willreturn
declare void @llvm.memset.p0i8.i64(i8* nocapture writeonly, i8, i64, i1 immarg) #1

declare dso_local i32 @__isoc99_scanf(i8*, ...) #2

declare dso_local i32 @printf(i8*, ...) #2


!llvm.module.flags = !{!0}
!llvm.ident = !{!1}

!0 = !{i32 1, !"wchar_size", i32 4}
!1 = !{!"clang version 10.0.0-4ubuntu1 "}
